target datalayout = "e-m:e-p270:32:32-p271:32:32-p272:64:64-i64:64-i128:128-f80:128-n8:16:32:64-S128"
target triple = "x86_64-pc-linux-gnu"

%struct.ParStruct = type { ptr, i32, i32, i32, i32, i32, i32 }
%struct.Abc_Ntk_t_ = type { i32, i32, ptr, ptr, ptr, ptr, ptr, ptr, ptr, ptr, ptr, ptr, ptr, [11 x i32], i32, i32, i32, i32, ptr, i32, ptr, ptr, i32, i32, i32, double, i32, %struct.Vec_Int_t_, ptr, ptr, ptr, ptr, ptr, float, i32, ptr, ptr, ptr, ptr, ptr, ptr, ptr, ptr, ptr, ptr, ptr, ptr, ptr, ptr, ptr, ptr, ptr, ptr, ptr, ptr, ptr }
%struct.Vec_Int_t_ = type { i32, i32, ptr }
%struct.Vec_Ptr_t_ = type { i32, i32, ptr }

@Abc_NtkCompareAndSaveBest.ParsNew = internal global %struct.ParStruct zeroinitializer, align 8
@Abc_NtkCompareAndSaveBest.ParsBest = internal global %struct.ParStruct zeroinitializer, align 8
@.str = private unnamed_addr constant [11 x i8] c"_best.blif\00", align 1

; Function Attrs: nounwind uwtable
define internal i32 @Vec_PtrSize(ptr noundef %0) #0 {
  %2 = alloca ptr, align 8
  store ptr %0, ptr %2, align 8
  %3 = load ptr, ptr %2, align 8
  %4 = getelementptr inbounds %struct.Vec_Ptr_t_, ptr %3, i32 0, i32 1
  %5 = load i32, ptr %4, align 4
  ret i32 %5
}

; Function Attrs: nounwind uwtable
define internal i32 @Abc_NtkPoNum(ptr noundef %0) #0 {
  %2 = alloca ptr, align 8
  store ptr %0, ptr %2, align 8
  %3 = load ptr, ptr %2, align 8
  %4 = getelementptr inbounds %struct.Abc_Ntk_t_, ptr %3, i32 0, i32 7
  %5 = load ptr, ptr %4, align 8
  %6 = call i32 @Vec_PtrSize(ptr noundef %5)
  ret i32 %6
}

; Function Attrs: nounwind uwtable
define internal i32 @Abc_NtkPiNum(ptr noundef %0) #0 {
  %2 = alloca ptr, align 8
  store ptr %0, ptr %2, align 8
  %3 = load ptr, ptr %2, align 8
  %4 = getelementptr inbounds %struct.Abc_Ntk_t_, ptr %3, i32 0, i32 6
  %5 = load ptr, ptr %4, align 8
  %6 = call i32 @Vec_PtrSize(ptr noundef %5)
  ret i32 %6
}

; Function Attrs: nounwind uwtable
define internal i32 @Abc_NtkNodeNum(ptr noundef %0) #0 {
  %2 = alloca ptr, align 8
  store ptr %0, ptr %2, align 8
  %3 = load ptr, ptr %2, align 8
  %4 = getelementptr inbounds %struct.Abc_Ntk_t_, ptr %3, i32 0, i32 13
  %5 = getelementptr inbounds [11 x i32], ptr %4, i64 0, i64 7
  %6 = load i32, ptr %5, align 4
  ret i32 %6
}

; Function Attrs: nounwind uwtable
define internal i32 @Abc_NtkLatchNum(ptr noundef %0) #0 {
  %2 = alloca ptr, align 8
  store ptr %0, ptr %2, align 8
  %3 = load ptr, ptr %2, align 8
  %4 = getelementptr inbounds %struct.Abc_Ntk_t_, ptr %3, i32 0, i32 13
  %5 = getelementptr inbounds [11 x i32], ptr %4, i64 0, i64 8
  %6 = load i32, ptr %5, align 8
  ret i32 %6
}

; Function Attrs: nounwind uwtable
define internal i32 @Abc_NtkIsLogic(ptr noundef %0) #0 {
  %2 = alloca ptr, align 8
  store ptr %0, ptr %2, align 8
  %3 = load ptr, ptr %2, align 8
  %4 = getelementptr inbounds %struct.Abc_Ntk_t_, ptr %3, i32 0, i32 0
  %5 = load i32, ptr %4, align 8
  %6 = icmp eq i32 %5, 2
  %7 = zext i1 %6 to i32
  ret i32 %7
}

; Function Attrs: nounwind uwtable
define i32 @Abc_NtkCompareAndSaveBest(ptr noundef %0) #0 {
  %2 = alloca i32, align 4
  %3 = alloca ptr, align 8
  %4 = alloca ptr, align 8
  store ptr %0, ptr %3, align 8
  %5 = load ptr, ptr %3, align 8
  %6 = icmp eq ptr %5, null
  br i1 %6, label %7, label %14

7:                                                ; preds = %1
  %8 = load ptr, ptr @Abc_NtkCompareAndSaveBest.ParsBest, align 8
  %9 = icmp ne ptr %8, null
  br i1 %9, label %10, label %12

10:                                               ; preds = %7
  %11 = load ptr, ptr @Abc_NtkCompareAndSaveBest.ParsBest, align 8
  call void @free(ptr noundef %11) #11
  store ptr null, ptr @Abc_NtkCompareAndSaveBest.ParsBest, align 8
  br label %13

12:                                               ; preds = %7
  br label %13

13:                                               ; preds = %12, %10
  store i32 0, ptr %2, align 4
  br label %136

14:                                               ; preds = %1
  %15 = load ptr, ptr %3, align 8
  %16 = call i32 @Abc_NtkIsLogic(ptr noundef %15)
  %17 = icmp ne i32 %16, 0
  br i1 %17, label %19, label %18

18:                                               ; preds = %14
  store i32 0, ptr %2, align 4
  br label %136

19:                                               ; preds = %14
  %20 = load ptr, ptr %3, align 8
  %21 = call i32 @Abc_NtkLevel(ptr noundef %20)
  %22 = getelementptr inbounds %struct.ParStruct, ptr @Abc_NtkCompareAndSaveBest.ParsNew, i32 0, i32 1
  store i32 %21, ptr %22, align 8
  %23 = load ptr, ptr %3, align 8
  %24 = call i32 @Abc_NtkLatchNum(ptr noundef %23)
  %25 = getelementptr inbounds %struct.ParStruct, ptr @Abc_NtkCompareAndSaveBest.ParsNew, i32 0, i32 2
  store i32 %24, ptr %25, align 4
  %26 = load ptr, ptr %3, align 8
  %27 = call i32 @Abc_NtkNodeNum(ptr noundef %26)
  %28 = getelementptr inbounds %struct.ParStruct, ptr @Abc_NtkCompareAndSaveBest.ParsNew, i32 0, i32 3
  store i32 %27, ptr %28, align 8
  %29 = load ptr, ptr %3, align 8
  %30 = call i32 @Abc_NtkGetTotalFanins(ptr noundef %29)
  %31 = getelementptr inbounds %struct.ParStruct, ptr @Abc_NtkCompareAndSaveBest.ParsNew, i32 0, i32 4
  store i32 %30, ptr %31, align 4
  %32 = load ptr, ptr %3, align 8
  %33 = call i32 @Abc_NtkPiNum(ptr noundef %32)
  %34 = getelementptr inbounds %struct.ParStruct, ptr @Abc_NtkCompareAndSaveBest.ParsNew, i32 0, i32 5
  store i32 %33, ptr %34, align 8
  %35 = load ptr, ptr %3, align 8
  %36 = call i32 @Abc_NtkPoNum(ptr noundef %35)
  %37 = getelementptr inbounds %struct.ParStruct, ptr @Abc_NtkCompareAndSaveBest.ParsNew, i32 0, i32 6
  store i32 %36, ptr %37, align 4
  %38 = load ptr, ptr @Abc_NtkCompareAndSaveBest.ParsBest, align 8
  %39 = icmp eq ptr %38, null
  br i1 %39, label %83, label %40

40:                                               ; preds = %19
  %41 = load ptr, ptr @Abc_NtkCompareAndSaveBest.ParsBest, align 8
  %42 = load ptr, ptr %3, align 8
  %43 = getelementptr inbounds %struct.Abc_Ntk_t_, ptr %42, i32 0, i32 2
  %44 = load ptr, ptr %43, align 8
  %45 = call i32 @strcmp(ptr noundef %41, ptr noundef %44) #12
  %46 = icmp ne i32 %45, 0
  br i1 %46, label %83, label %47

47:                                               ; preds = %40
  %48 = getelementptr inbounds %struct.ParStruct, ptr @Abc_NtkCompareAndSaveBest.ParsBest, i32 0, i32 1
  %49 = load i32, ptr %48, align 8
  %50 = getelementptr inbounds %struct.ParStruct, ptr @Abc_NtkCompareAndSaveBest.ParsNew, i32 0, i32 1
  %51 = load i32, ptr %50, align 8
  %52 = icmp sgt i32 %49, %51
  br i1 %52, label %83, label %53

53:                                               ; preds = %47
  %54 = getelementptr inbounds %struct.ParStruct, ptr @Abc_NtkCompareAndSaveBest.ParsBest, i32 0, i32 1
  %55 = load i32, ptr %54, align 8
  %56 = getelementptr inbounds %struct.ParStruct, ptr @Abc_NtkCompareAndSaveBest.ParsNew, i32 0, i32 1
  %57 = load i32, ptr %56, align 8
  %58 = icmp eq i32 %55, %57
  br i1 %58, label %59, label %65

59:                                               ; preds = %53
  %60 = getelementptr inbounds %struct.ParStruct, ptr @Abc_NtkCompareAndSaveBest.ParsBest, i32 0, i32 2
  %61 = load i32, ptr %60, align 4
  %62 = getelementptr inbounds %struct.ParStruct, ptr @Abc_NtkCompareAndSaveBest.ParsNew, i32 0, i32 2
  %63 = load i32, ptr %62, align 4
  %64 = icmp sgt i32 %61, %63
  br i1 %64, label %83, label %65

65:                                               ; preds = %59, %53
  %66 = getelementptr inbounds %struct.ParStruct, ptr @Abc_NtkCompareAndSaveBest.ParsBest, i32 0, i32 1
  %67 = load i32, ptr %66, align 8
  %68 = getelementptr inbounds %struct.ParStruct, ptr @Abc_NtkCompareAndSaveBest.ParsNew, i32 0, i32 1
  %69 = load i32, ptr %68, align 8
  %70 = icmp eq i32 %67, %69
  br i1 %70, label %71, label %135

71:                                               ; preds = %65
  %72 = getelementptr inbounds %struct.ParStruct, ptr @Abc_NtkCompareAndSaveBest.ParsBest, i32 0, i32 2
  %73 = load i32, ptr %72, align 4
  %74 = getelementptr inbounds %struct.ParStruct, ptr @Abc_NtkCompareAndSaveBest.ParsNew, i32 0, i32 2
  %75 = load i32, ptr %74, align 4
  %76 = icmp eq i32 %73, %75
  br i1 %76, label %77, label %135

77:                                               ; preds = %71
  %78 = getelementptr inbounds %struct.ParStruct, ptr @Abc_NtkCompareAndSaveBest.ParsBest, i32 0, i32 4
  %79 = load i32, ptr %78, align 4
  %80 = getelementptr inbounds %struct.ParStruct, ptr @Abc_NtkCompareAndSaveBest.ParsNew, i32 0, i32 4
  %81 = load i32, ptr %80, align 4
  %82 = icmp sgt i32 %79, %81
  br i1 %82, label %83, label %135

83:                                               ; preds = %77, %59, %47, %40, %19
  %84 = load ptr, ptr @Abc_NtkCompareAndSaveBest.ParsBest, align 8
  %85 = icmp ne ptr %84, null
  br i1 %85, label %86, label %88

86:                                               ; preds = %83
  %87 = load ptr, ptr @Abc_NtkCompareAndSaveBest.ParsBest, align 8
  call void @free(ptr noundef %87) #11
  store ptr null, ptr @Abc_NtkCompareAndSaveBest.ParsBest, align 8
  br label %89

88:                                               ; preds = %83
  br label %89

89:                                               ; preds = %88, %86
  %90 = load ptr, ptr %3, align 8
  %91 = getelementptr inbounds %struct.Abc_Ntk_t_, ptr %90, i32 0, i32 2
  %92 = load ptr, ptr %91, align 8
  %93 = call ptr @Extra_UtilStrsav(ptr noundef %92)
  store ptr %93, ptr @Abc_NtkCompareAndSaveBest.ParsBest, align 8
  %94 = getelementptr inbounds %struct.ParStruct, ptr @Abc_NtkCompareAndSaveBest.ParsNew, i32 0, i32 1
  %95 = load i32, ptr %94, align 8
  %96 = getelementptr inbounds %struct.ParStruct, ptr @Abc_NtkCompareAndSaveBest.ParsBest, i32 0, i32 1
  store i32 %95, ptr %96, align 8
  %97 = getelementptr inbounds %struct.ParStruct, ptr @Abc_NtkCompareAndSaveBest.ParsNew, i32 0, i32 2
  %98 = load i32, ptr %97, align 4
  %99 = getelementptr inbounds %struct.ParStruct, ptr @Abc_NtkCompareAndSaveBest.ParsBest, i32 0, i32 2
  store i32 %98, ptr %99, align 4
  %100 = getelementptr inbounds %struct.ParStruct, ptr @Abc_NtkCompareAndSaveBest.ParsNew, i32 0, i32 3
  %101 = load i32, ptr %100, align 8
  %102 = getelementptr inbounds %struct.ParStruct, ptr @Abc_NtkCompareAndSaveBest.ParsBest, i32 0, i32 3
  store i32 %101, ptr %102, align 8
  %103 = getelementptr inbounds %struct.ParStruct, ptr @Abc_NtkCompareAndSaveBest.ParsNew, i32 0, i32 4
  %104 = load i32, ptr %103, align 4
  %105 = getelementptr inbounds %struct.ParStruct, ptr @Abc_NtkCompareAndSaveBest.ParsBest, i32 0, i32 4
  store i32 %104, ptr %105, align 4
  %106 = getelementptr inbounds %struct.ParStruct, ptr @Abc_NtkCompareAndSaveBest.ParsNew, i32 0, i32 5
  %107 = load i32, ptr %106, align 8
  %108 = getelementptr inbounds %struct.ParStruct, ptr @Abc_NtkCompareAndSaveBest.ParsBest, i32 0, i32 5
  store i32 %107, ptr %108, align 8
  %109 = getelementptr inbounds %struct.ParStruct, ptr @Abc_NtkCompareAndSaveBest.ParsNew, i32 0, i32 6
  %110 = load i32, ptr %109, align 4
  %111 = getelementptr inbounds %struct.ParStruct, ptr @Abc_NtkCompareAndSaveBest.ParsBest, i32 0, i32 6
  store i32 %110, ptr %111, align 4
  %112 = load ptr, ptr %3, align 8
  %113 = getelementptr inbounds %struct.Abc_Ntk_t_, ptr %112, i32 0, i32 3
  %114 = load ptr, ptr %113, align 8
  %115 = load ptr, ptr %3, align 8
  %116 = getelementptr inbounds %struct.Abc_Ntk_t_, ptr %115, i32 0, i32 3
  %117 = load ptr, ptr %116, align 8
  %118 = call i64 @strlen(ptr noundef %117) #12
  %119 = getelementptr inbounds i8, ptr %114, i64 %118
  %120 = getelementptr inbounds i8, ptr %119, i64 -10
  %121 = call i32 @strcmp(ptr noundef %120, ptr noundef @.str) #12
  %122 = icmp ne i32 %121, 0
  br i1 %122, label %123, label %128

123:                                              ; preds = %89
  %124 = load ptr, ptr %3, align 8
  %125 = getelementptr inbounds %struct.Abc_Ntk_t_, ptr %124, i32 0, i32 3
  %126 = load ptr, ptr %125, align 8
  %127 = call ptr @Extra_FileNameGenericAppend(ptr noundef %126, ptr noundef @.str)
  store ptr %127, ptr %4, align 8
  br label %132

128:                                              ; preds = %89
  %129 = load ptr, ptr %3, align 8
  %130 = getelementptr inbounds %struct.Abc_Ntk_t_, ptr %129, i32 0, i32 3
  %131 = load ptr, ptr %130, align 8
  store ptr %131, ptr %4, align 8
  br label %132

132:                                              ; preds = %128, %123
  %133 = load ptr, ptr %3, align 8
  %134 = load ptr, ptr %4, align 8
  call void @Io_Write(ptr noundef %133, ptr noundef %134, i32 noundef 4)
  store i32 1, ptr %2, align 4
  br label %136

135:                                              ; preds = %77, %71, %65
  store i32 0, ptr %2, align 4
  br label %136

136:                                              ; preds = %135, %132, %18, %13
  %137 = load i32, ptr %2, align 4
  ret i32 %137
}