; Function Attrs: nounwind uwtable
define range(i32 0, 2) i32 @Abc_NtkCompareAndSaveBest(ptr noundef %0) local_unnamed_addr #0 {
  %2 = icmp eq ptr %0, null
  br i1 %2, label %3, label %6

3:                                                ; preds = %1
  %4 = load ptr, ptr @Abc_NtkCompareAndSaveBest.ParsBest.0, align 8
  %.not26 = icmp eq ptr %4, null
  br i1 %.not26, label %48, label %5

5:                                                ; preds = %3
  tail call void @free(ptr noundef nonnull %4) #19
  store ptr null, ptr @Abc_NtkCompareAndSaveBest.ParsBest.0, align 8
  br label %48

6:                                                ; preds = %1
  %.val = load i32, ptr %0, align 8
  %.not = icmp eq i32 %.val, 2
  br i1 %.not, label %7, label %48

7:                                                ; preds = %6
  %8 = tail call i32 @Abc_NtkLevel(ptr noundef nonnull %0) #19
  store i32 %8, ptr @Abc_NtkCompareAndSaveBest.ParsNew.0, align 8
  %9 = getelementptr i8, ptr %0, i64 128
  %.val27 = load i32, ptr %9, align 8
  store i32 %.val27, ptr @Abc_NtkCompareAndSaveBest.ParsNew.1, align 4
  %10 = tail call i32 @Abc_NtkGetTotalFanins(ptr noundef nonnull %0) #19
  store i32 %10, ptr @Abc_NtkCompareAndSaveBest.ParsNew.3, align 4
  %11 = load ptr, ptr @Abc_NtkCompareAndSaveBest.ParsBest.0, align 8
  %12 = icmp eq ptr %11, null
  br i1 %12, label %32, label %13

13:                                               ; preds = %7
  %14 = getelementptr inbounds nuw i8, ptr %0, i64 8
  %15 = load ptr, ptr %14, align 8
  %16 = tail call i32 @strcmp(ptr noundef nonnull dereferenceable(1) %11, ptr noundef nonnull dereferenceable(1) %15) #20
  %.not23 = icmp eq i32 %16, 0
  br i1 %.not23, label %17, label %31

17:                                               ; preds = %13
  %18 = load i32, ptr @Abc_NtkCompareAndSaveBest.ParsBest.1, align 8
  %19 = load i32, ptr @Abc_NtkCompareAndSaveBest.ParsNew.0, align 8
  %20 = icmp sgt i32 %18, %19
  br i1 %20, label %31, label %21

21:                                               ; preds = %17
  %22 = icmp eq i32 %18, %19
  br i1 %22, label %23, label %48

23:                                               ; preds = %21
  %24 = load i32, ptr @Abc_NtkCompareAndSaveBest.ParsBest.2, align 4
  %25 = load i32, ptr @Abc_NtkCompareAndSaveBest.ParsNew.1, align 4
  %26 = icmp sgt i32 %24, %25
  br i1 %26, label %31, label %27

27:                                               ; preds = %23
  %28 = icmp eq i32 %24, %25
  %29 = load i32, ptr @Abc_NtkCompareAndSaveBest.ParsBest.4, align 4
  %30 = icmp sgt i32 %29, %10
  %or.cond = select i1 %28, i1 %30, i1 false
  br i1 %or.cond, label %31, label %48

31:                                               ; preds = %27, %23, %17, %13
  tail call void @free(ptr noundef nonnull %11) #19
  store ptr null, ptr @Abc_NtkCompareAndSaveBest.ParsBest.0, align 8
  br label %32

32:                                               ; preds = %7, %31
  %33 = getelementptr inbounds nuw i8, ptr %0, i64 8
  %34 = load ptr, ptr %33, align 8
  %35 = tail call ptr @Extra_UtilStrsav(ptr noundef %34) #19
  store ptr %35, ptr @Abc_NtkCompareAndSaveBest.ParsBest.0, align 8
  %36 = load i32, ptr @Abc_NtkCompareAndSaveBest.ParsNew.0, align 8
  store i32 %36, ptr @Abc_NtkCompareAndSaveBest.ParsBest.1, align 8
  %37 = load i32, ptr @Abc_NtkCompareAndSaveBest.ParsNew.1, align 4
  store i32 %37, ptr @Abc_NtkCompareAndSaveBest.ParsBest.2, align 4
  %38 = load i32, ptr @Abc_NtkCompareAndSaveBest.ParsNew.3, align 4
  store i32 %38, ptr @Abc_NtkCompareAndSaveBest.ParsBest.4, align 4
  %39 = getelementptr inbounds nuw i8, ptr %0, i64 16
  %40 = load ptr, ptr %39, align 8
  %41 = tail call i64 @strlen(ptr noundef nonnull dereferenceable(1) %40) #20
  %42 = getelementptr inbounds i8, ptr %40, i64 %41
  %43 = getelementptr inbounds i8, ptr %42, i64 -10
  %44 = tail call i32 @strcmp(ptr noundef nonnull dereferenceable(1) %43, ptr noundef nonnull dereferenceable(11) @.str) #20
  %.not25 = icmp eq i32 %44, 0
  br i1 %.not25, label %47, label %45

45:                                               ; preds = %32
  %46 = tail call ptr @Extra_FileNameGenericAppend(ptr noundef nonnull %40, ptr noundef nonnull @.str) #19
  br label %47

47:                                               ; preds = %32, %45
  %.0 = phi ptr [ %46, %45 ], [ %40, %32 ]
  tail call void @Io_Write(ptr noundef nonnull %0, ptr noundef %.0, i32 noundef 4) #19
  br label %48

48:                                               ; preds = %21, %27, %6, %5, %3, %47
  %.016 = phi i32 [ 1, %47 ], [ 0, %3 ], [ 0, %5 ], [ 0, %6 ], [ 0, %27 ], [ 0, %21 ]
  ret i32 %.016
}